Certificate:
    Data:
        Version: 3 (0x2)
        Serial Number: 1 (0x1)
        Signature Algorithm: sha256WithRSAEncryption
        Issuer: O=Mictron, CN=ArnLib CA R1
        Validity
            Not Before: Jan  1 00:00:00 1970 GMT
            Not After : Dec 31 23:59:59 9999 GMT
        Subject: O=Mictron, CN=ArnLib CA R1
        Subject Public Key Info:
            Public Key Algorithm: rsaEncryption
                RSA Public-Key: (2048 bit)
                Modulus:
                    00:bf:8c:76:12:12:d8:af:d8:d9:67:a6:d8:c3:7d:
                    41:af:5b:c6:4d:03:b2:9a:14:52:7b:14:c2:35:32:
                    3d:26:fa:54:1a:0b:22:44:7b:02:9c:91:5b:cb:ab:
                    5b:87:ef:ef:46:c8:14:f3:e9:e0:d3:c2:8d:06:94:
                    00:33:b7:d0:00:9f:fc:62:41:68:14:82:66:fa:34:
                    cd:7b:3f:28:8d:41:81:d7:30:d8:cb:e1:e6:6a:a0:
                    8a:ff:29:00:44:99:45:ed:c5:b5:ff:33:64:6d:00:
                    d7:e4:d9:5c:92:d0:f8:69:b2:90:68:3a:dc:89:0e:
                    34:5e:94:f1:8f:75:3c:26:f9:8d:f1:6f:2a:24:57:
                    9d:c9:54:36:50:d7:46:93:89:fb:e2:a7:ed:e4:19:
                    2e:00:ce:9b:f5:1b:77:9a:d3:9c:60:45:fa:99:c8:
                    d2:03:59:f0:14:b5:8b:ef:43:47:01:5d:08:d4:de:
                    61:a0:1a:01:04:17:64:c6:84:7b:87:dc:32:73:71:
                    53:eb:ca:f8:ba:26:08:2e:39:78:78:ae:f6:49:cf:
                    27:2c:29:bc:a7:01:93:b9:a1:85:d6:fb:e6:ab:b3:
                    2e:4b:ae:d2:50:a8:9d:3b:c5:cd:37:54:90:8e:21:
                    f8:d1:29:41:7b:bf:34:e9:f8:70:18:2d:1c:c1:ae:
                    45:5d
                Exponent: 65537 (0x10001)
        X509v3 extensions:
            X509v3 Subject Key Identifier: 
                36:B2:0C:65:44:14:4B:94:AC:E8:1A:34:6F:A3:2D:C8:CA:11:54:3D
            X509v3 Authority Key Identifier: 
                keyid:36:B2:0C:65:44:14:4B:94:AC:E8:1A:34:6F:A3:2D:C8:CA:11:54:3D
                DirName:/O=Mictron/CN=ArnLib CA R1
                serial:01

            X509v3 Basic Constraints: 
                CA:TRUE
    Signature Algorithm: sha256WithRSAEncryption
         a8:0b:6e:8d:4f:39:db:95:2d:82:e1:25:ea:d7:7d:1d:24:09:
         66:ac:1f:06:f8:3c:e6:be:ba:6d:74:3d:c7:62:41:7f:0b:a9:
         ad:ed:23:3b:d4:2b:03:01:8c:d2:4e:59:d9:6c:2d:78:39:24:
         6b:b4:8b:b9:78:1c:9d:4d:1d:de:1c:d8:d3:2e:87:40:de:cc:
         ef:94:3b:9d:34:71:a6:d4:2f:b0:d7:a3:1f:5b:eb:7e:0b:f0:
         5e:27:55:1f:b9:17:39:48:6c:27:68:3f:7c:c0:80:06:f6:00:
         ca:84:28:90:b2:0a:41:3a:a4:f0:b9:b1:ac:57:a4:65:7b:6b:
         73:4b:cd:1d:49:c6:3e:8a:36:3c:dd:96:3f:fe:ae:56:0e:c9:
         b3:8f:a1:e6:ca:5e:e3:24:75:00:72:9f:03:4a:66:68:5f:9c:
         2c:8f:7c:4d:a6:6f:cb:5d:ba:d5:07:15:3c:e0:ba:16:bc:da:
         b4:b2:b6:ef:85:bd:76:3d:60:38:6a:4f:18:7a:54:11:fc:96:
         eb:77:fb:47:bd:a4:b0:60:6a:9c:45:ac:a5:68:04:62:27:d9:
         37:5f:ac:28:1f:7a:64:a4:e0:c8:90:bf:26:e1:c7:25:28:16:
         d0:45:03:a3:88:4b:fa:c0:b3:b0:b2:1b:d0:81:99:ba:43:ae:
         44:53:a6:c1
-----BEGIN CERTIFICATE-----
MIIDUzCCAjugAwIBAgIBATANBgkqhkiG9w0BAQsFADApMRAwDgYDVQQKDAdNaWN0
cm9uMRUwEwYDVQQDDAxBcm5MaWIgQ0EgUjEwIBcNNzAwMTAxMDAwMDAwWhgPOTk5
OTEyMzEyMzU5NTlaMCkxEDAOBgNVBAoMB01pY3Ryb24xFTATBgNVBAMMDEFybkxp
YiBDQSBSMTCCASIwDQYJKoZIhvcNAQEBBQADggEPADCCAQoCggEBAL+MdhIS2K/Y
2Wem2MN9Qa9bxk0DspoUUnsUwjUyPSb6VBoLIkR7ApyRW8urW4fv70bIFPPp4NPC
jQaUADO30ACf/GJBaBSCZvo0zXs/KI1Bgdcw2Mvh5mqgiv8pAESZRe3Ftf8zZG0A
1+TZXJLQ+GmykGg63IkONF6U8Y91PCb5jfFvKiRXnclUNlDXRpOJ++Kn7eQZLgDO
m/Ubd5rTnGBF+pnI0gNZ8BS1i+9DRwFdCNTeYaAaAQQXZMaEe4fcMnNxU+vK+Lom
CC45eHiu9knPJywpvKcBk7mhhdb75quzLkuu0lConTvFzTdUkI4h+NEpQXu/NOn4
cBgtHMGuRV0CAwEAAaOBgzCBgDAdBgNVHQ4EFgQUNrIMZUQUS5Ss6Bo0b6MtyMoR
VD0wUQYDVR0jBEowSIAUNrIMZUQUS5Ss6Bo0b6MtyMoRVD2hLaQrMCkxEDAOBgNV
BAoMB01pY3Ryb24xFTATBgNVBAMMDEFybkxpYiBDQSBSMYIBATAMBgNVHRMEBTAD
AQH/MA0GCSqGSIb3DQEBCwUAA4IBAQCoC26NTznblS2C4SXq130dJAlmrB8G+Dzm
vrptdD3HYkF/C6mt7SM71CsDAYzSTlnZbC14OSRrtIu5eBydTR3eHNjTLodA3szv
lDudNHGm1C+w16MfW+t+C/BeJ1UfuRc5SGwnaD98wIAG9gDKhCiQsgpBOqTwubGs
V6Rle2tzS80dScY+ijY83ZY//q5WDsmzj6Hmyl7jJHUAcp8DSmZoX5wsj3xNpm/L
XbrVBxU84LoWvNq0srbvhb12PWA4ak8YelQR/Jbrd/tHvaSwYGqcRaylaARiJ9k3
X6woH3pkpODIkL8m4cclKBbQRQOjiEv6wLOwshvQgZm6Q65EU6bB
-----END CERTIFICATE-----
