Certificate:
    Data:
        Version: 3 (0x2)
        Serial Number: 2 (0x2)
        Signature Algorithm: sha256WithRSAEncryption
        Issuer: O=Mictron, CN=ArnLib CA R1
        Validity
            Not Before: Jan  1 00:00:00 1970 GMT
            Not After : Dec 31 23:59:59 9999 GMT
        Subject: O=Mictron, CN=ArnLib R1
        Subject Public Key Info:
            Public Key Algorithm: rsaEncryption
                RSA Public-Key: (2048 bit)
                Modulus:
                    00:c1:ef:bc:12:42:6a:cb:9e:51:20:4c:84:18:2d:
                    a2:b0:e0:54:37:19:78:60:0a:b9:22:7a:94:0f:73:
                    cf:05:5a:52:d1:e4:8d:b9:af:be:f4:15:3b:83:a5:
                    3f:c8:c9:83:7b:37:45:27:0e:c9:99:6d:a2:a9:21:
                    59:cd:4d:07:18:19:b6:54:3e:a9:d6:72:78:ad:57:
                    a7:8f:cc:a7:0a:a4:10:0d:e1:22:89:64:e7:e2:a6:
                    bd:b4:7a:7d:64:1e:2d:28:ec:9d:7b:de:8b:49:0d:
                    8c:28:69:55:36:b7:2e:57:77:70:ab:f1:52:36:63:
                    af:a8:ef:a0:14:f5:65:bd:87:f3:21:44:9a:c0:70:
                    3d:c0:7b:2d:75:1e:34:ce:1e:72:d6:a2:17:02:87:
                    0f:bd:ec:61:9c:5c:7d:dd:93:76:e0:2b:db:bc:d5:
                    a8:a8:14:0d:5d:79:d8:9e:c8:05:df:df:b0:53:ed:
                    cd:0f:70:5a:84:ac:76:9d:3b:0d:06:0f:ec:1f:34:
                    a1:2e:db:b2:20:ea:63:e7:72:d2:1c:6f:dd:b6:01:
                    d3:3b:5c:df:07:6d:19:fe:0e:56:0f:17:29:3f:9d:
                    28:34:19:cd:31:81:b0:1b:ca:72:3d:e4:da:f5:84:
                    55:c7:ea:5a:99:8a:16:72:90:96:8b:be:84:b2:6c:
                    60:05
                Exponent: 65537 (0x10001)
        X509v3 extensions:
            X509v3 Subject Key Identifier: 
                44:23:5A:1A:2C:2A:0B:69:5F:95:88:77:2E:87:E3:01:1D:B6:7B:75
            X509v3 Authority Key Identifier: 
                keyid:36:B2:0C:65:44:14:4B:94:AC:E8:1A:34:6F:A3:2D:C8:CA:11:54:3D
                DirName:/O=Mictron/CN=ArnLib CA R1
                serial:01

            X509v3 Basic Constraints: 
                CA:FALSE
    Signature Algorithm: sha256WithRSAEncryption
         1d:47:e6:8c:43:d2:ba:82:2f:07:4f:3e:30:93:65:6e:ef:e2:
         01:80:2a:a6:c8:1e:5d:f0:d3:97:28:53:78:ff:84:e9:e0:44:
         ac:8d:ee:b8:5b:2c:a3:3f:c3:66:cf:41:f1:2e:0c:5d:0e:13:
         b1:f5:23:e9:17:95:16:6d:11:a1:2b:d0:06:18:e6:74:2a:37:
         be:dd:8a:44:c3:93:12:c7:9f:3c:73:42:a9:9a:13:85:c4:36:
         f2:47:12:2e:2e:05:a7:22:d6:e3:a5:70:75:dc:6f:73:72:1e:
         37:c3:a7:b7:9e:ae:11:b7:d2:c6:f8:14:b6:4e:3c:c7:98:74:
         c9:b0:98:9f:35:1f:7a:b2:a5:b6:01:41:37:1b:8a:88:e0:79:
         f7:93:be:87:58:6b:a2:42:84:f8:59:7e:32:cf:54:54:15:f5:
         1d:9a:10:08:9c:aa:73:01:4e:e8:4d:9c:58:37:7a:ff:e9:2e:
         0a:16:c1:a7:fc:f2:b2:e9:15:5a:b6:b4:ed:0c:1a:8b:a3:1a:
         12:a7:0c:b2:38:e0:e6:3c:2f:8e:98:32:0c:7b:a2:07:a7:18:
         b5:8f:0d:22:54:93:bc:c2:9c:91:b2:f3:66:eb:c5:83:10:b3:
         7c:a5:77:c2:29:6a:c6:91:81:87:ea:1f:28:6d:2b:28:45:d3:
         c4:02:4a:7c
-----BEGIN CERTIFICATE-----
MIIDSzCCAjOgAwIBAgIBAjANBgkqhkiG9w0BAQsFADApMRAwDgYDVQQKDAdNaWN0
cm9uMRUwEwYDVQQDDAxBcm5MaWIgQ0EgUjEwIBcNNzAwMTAxMDAwMDAwWhgPOTk5
OTEyMzEyMzU5NTlaMCYxEDAOBgNVBAoMB01pY3Ryb24xEjAQBgNVBAMMCUFybkxp
YiBSMTCCASIwDQYJKoZIhvcNAQEBBQADggEPADCCAQoCggEBAMHvvBJCasueUSBM
hBgtorDgVDcZeGAKuSJ6lA9zzwVaUtHkjbmvvvQVO4OlP8jJg3s3RScOyZltoqkh
Wc1NBxgZtlQ+qdZyeK1Xp4/MpwqkEA3hIolk5+KmvbR6fWQeLSjsnXvei0kNjChp
VTa3Lld3cKvxUjZjr6jvoBT1Zb2H8yFEmsBwPcB7LXUeNM4ectaiFwKHD73sYZxc
fd2TduAr27zVqKgUDV152J7IBd/fsFPtzQ9wWoSsdp07DQYP7B80oS7bsiDqY+dy
0hxv3bYB0ztc3wdtGf4OVg8XKT+dKDQZzTGBsBvKcj3k2vWEVcfqWpmKFnKQlou+
hLJsYAUCAwEAAaN/MH0wHQYDVR0OBBYEFEQjWhosKgtpX5WIdy6H4wEdtnt1MFEG
A1UdIwRKMEiAFDayDGVEFEuUrOgaNG+jLcjKEVQ9oS2kKzApMRAwDgYDVQQKDAdN
aWN0cm9uMRUwEwYDVQQDDAxBcm5MaWIgQ0EgUjGCAQEwCQYDVR0TBAIwADANBgkq
hkiG9w0BAQsFAAOCAQEAHUfmjEPSuoIvB08+MJNlbu/iAYAqpsgeXfDTlyhTeP+E
6eBErI3uuFssoz/DZs9B8S4MXQ4TsfUj6ReVFm0RoSvQBhjmdCo3vt2KRMOTEsef
PHNCqZoThcQ28kcSLi4FpyLW46Vwddxvc3IeN8Ont56uEbfSxvgUtk48x5h0ybCY
nzUferKltgFBNxuKiOB595O+h1hrokKE+Fl+Ms9UVBX1HZoQCJyqcwFO6E2cWDd6
/+kuChbBp/zysukVWra07Qwai6MaEqcMsjjg5jwvjpgyDHuiB6cYtY8NIlSTvMKc
kbLzZuvFgxCzfKV3wilqxpGBh+ofKG0rKEXTxAJKfA==
-----END CERTIFICATE-----
